; Function Attrs: mustprogress uwtable
define void @_ZN15TCPStreamDialog37on_showSegLengthCheckBox_stateChangedEi(ptr nocapture noundef nonnull readonly align 8 dereferenceable(584) %0, i32 noundef %1) local_unnamed_addr #2 align 2 {
  %3 = icmp ne i32 %1, 0
  %4 = getelementptr inbounds i8, ptr %0, i64 128
  %5 = load i32, ptr %4, align 8
  %6 = icmp eq i32 %5, 2
  br i1 %6, label %7, label %18

7:                                                ; preds = %2
  %8 = getelementptr inbounds i8, ptr %0, i64 240
  %9 = load ptr, ptr %8, align 8
  %.not = icmp eq ptr %9, null
  br i1 %.not, label %18, label %10

10:                                               ; preds = %7
  tail call void @_ZN12QCPLayerable10setVisibleEb(ptr noundef nonnull align 8 dereferenceable(57) %9, i1 noundef zeroext %3)
  %11 = getelementptr inbounds i8, ptr %0, i64 344
  %12 = load ptr, ptr %11, align 8
  %13 = load ptr, ptr %8, align 8
  %spec.select = select i1 %3, ptr %13, ptr null
  tail call void @_ZN13QCPItemTracer8setGraphEP8QCPGraph(ptr noundef nonnull align 8 dereferenceable(209) %12, ptr noundef %spec.select)
  %14 = getelementptr inbounds i8, ptr %0, i64 64
  %15 = load ptr, ptr %14, align 8
  %16 = getelementptr inbounds i8, ptr %15, i64 232
  %17 = load ptr, ptr %16, align 8
  tail call void @_ZN11QCustomPlot6replotENS_15RefreshPriorityE(ptr noundef nonnull align 8 dereferenceable(513) %17, i32 noundef 2)
  br label %18

18:                                               ; preds = %10, %7, %2
  ret void
}